; Function Attrs: nounwind uwtable
define nonnull ptr @l_Lean_Widget_ExprDiff_isEmpty___boxed(ptr noundef %0) local_unnamed_addr #0 {
  %2 = getelementptr inbounds nuw i8, ptr %0, i64 8
  %3 = getelementptr inbounds nuw i8, ptr %0, i64 16
  %4 = load ptr, ptr %3, align 8, !tbaa !4
  %5 = ptrtoint ptr %4 to i64
  %6 = and i64 %5, 1
  %.not.i.i = icmp eq i64 %6, 0
  br i1 %.not.i.i, label %10, label %7

7:                                                ; preds = %1
  %8 = lshr i64 %5, 1
  %9 = trunc i64 %8 to i32
  br label %lean_obj_tag.exit.i

10:                                               ; preds = %1
  %11 = getelementptr i8, ptr %4, i64 4
  %.val.i.i = load i32, ptr %11, align 4
  %12 = lshr i32 %.val.i.i, 24
  br label %lean_obj_tag.exit.i

lean_obj_tag.exit.i:                              ; preds = %10, %7
  %.0.i.i = phi i32 [ %9, %7 ], [ %12, %10 ]
  %13 = icmp eq i32 %.0.i.i, 0
  br i1 %13, label %14, label %l_Lean_Widget_ExprDiff_isEmpty.exit

14:                                               ; preds = %lean_obj_tag.exit.i
  %15 = load ptr, ptr %2, align 8, !tbaa !4
  %16 = ptrtoint ptr %15 to i64
  %17 = and i64 %16, 1
  %.not.i7.i = icmp eq i64 %17, 0
  br i1 %.not.i7.i, label %21, label %18

18:                                               ; preds = %14
  %19 = lshr i64 %16, 1
  %20 = trunc i64 %19 to i32
  br label %lean_obj_tag.exit10.i

21:                                               ; preds = %14
  %22 = getelementptr i8, ptr %15, i64 4
  %.val.i9.i = load i32, ptr %22, align 4
  %23 = lshr i32 %.val.i9.i, 24
  br label %lean_obj_tag.exit10.i

lean_obj_tag.exit10.i:                            ; preds = %21, %18
  %.0.i8.i = phi i32 [ %20, %18 ], [ %23, %21 ]
  %24 = icmp eq i32 %.0.i8.i, 0
  %25 = select i1 %24, i64 3, i64 1
  br label %l_Lean_Widget_ExprDiff_isEmpty.exit

l_Lean_Widget_ExprDiff_isEmpty.exit:              ; preds = %lean_obj_tag.exit.i, %lean_obj_tag.exit10.i
  %.1.i = phi i64 [ %25, %lean_obj_tag.exit10.i ], [ 1, %lean_obj_tag.exit.i ]
  %26 = ptrtoint ptr %0 to i64
  %27 = and i64 %26, 1
  %.not = icmp eq i64 %27, 0
  br i1 %.not, label %28, label %lean_dec.exit

28:                                               ; preds = %l_Lean_Widget_ExprDiff_isEmpty.exit
  %29 = load i32, ptr %0, align 4, !tbaa !8
  %30 = icmp sgt i32 %29, 1
  br i1 %30, label %31, label %33, !prof !11

31:                                               ; preds = %28
  %32 = add nsw i32 %29, -1
  store i32 %32, ptr %0, align 4, !tbaa !8
  br label %lean_dec.exit

33:                                               ; preds = %28
  %.not.i = icmp eq i32 %29, 0
  br i1 %.not.i, label %lean_dec.exit, label %34

34:                                               ; preds = %33
  tail call void @lean_dec_ref_cold(ptr noundef nonnull %0) #7
  br label %lean_dec.exit

lean_dec.exit:                                    ; preds = %34, %33, %31, %l_Lean_Widget_ExprDiff_isEmpty.exit
  %35 = inttoptr i64 %.1.i to ptr
  ret ptr %35
}